; Function Attrs: nounwind uwtable
define ptr @l___private_Lean_Meta_Tactic_Grind_Split_0__Lean_Meta_Grind_casesWithTrace___lambda__1(ptr noundef %0, ptr readnone captures(none) %1, ptr noundef %2, ptr readnone captures(none) %3, ptr readnone captures(none) %4, ptr readnone captures(none) %5, ptr noundef %6, ptr noundef %7, ptr noundef %8, ptr noundef %9, ptr noundef %10) local_unnamed_addr #0 {
  %12 = tail call ptr @lean_st_ref_get(ptr noundef %2, ptr noundef %10) #4
  %13 = getelementptr inbounds nuw i8, ptr %12, i64 8
  %14 = load ptr, ptr %13, align 8, !tbaa !4
  %15 = ptrtoint ptr %14 to i64
  %16 = and i64 %15, 1
  %.not = icmp eq i64 %16, 0
  br i1 %.not, label %17, label %lean_inc.exit20

17:                                               ; preds = %11
  %.val.i = load i32, ptr %14, align 4, !tbaa !10
  %18 = icmp sgt i32 %.val.i, 0
  br i1 %18, label %19, label %21, !prof !13

19:                                               ; preds = %17
  %20 = add nuw i32 %.val.i, 1
  store i32 %20, ptr %14, align 4, !tbaa !10
  br label %lean_inc.exit20

21:                                               ; preds = %17
  %.not.i23 = icmp eq i32 %.val.i, 0
  br i1 %.not.i23, label %lean_inc.exit20, label %22

22:                                               ; preds = %21
  tail call void @lean_inc_ref_cold(ptr noundef nonnull %14) #4
  br label %lean_inc.exit20

lean_inc.exit20:                                  ; preds = %22, %21, %19, %11
  %23 = getelementptr inbounds nuw i8, ptr %12, i64 16
  %24 = load ptr, ptr %23, align 8, !tbaa !4
  %25 = ptrtoint ptr %24 to i64
  %26 = and i64 %25, 1
  %.not30 = icmp eq i64 %26, 0
  br i1 %.not30, label %27, label %lean_inc.exit19

27:                                               ; preds = %lean_inc.exit20
  %.val.i24 = load i32, ptr %24, align 4, !tbaa !10
  %28 = icmp sgt i32 %.val.i24, 0
  br i1 %28, label %29, label %31, !prof !13

29:                                               ; preds = %27
  %30 = add nuw i32 %.val.i24, 1
  store i32 %30, ptr %24, align 4, !tbaa !10
  br label %lean_inc.exit19

31:                                               ; preds = %27
  %.not.i25 = icmp eq i32 %.val.i24, 0
  br i1 %.not.i25, label %lean_inc.exit19, label %32

32:                                               ; preds = %31
  tail call void @lean_inc_ref_cold(ptr noundef nonnull %24) #4
  br label %lean_inc.exit19

lean_inc.exit19:                                  ; preds = %32, %31, %29, %lean_inc.exit20
  %33 = ptrtoint ptr %12 to i64
  %34 = and i64 %33, 1
  %.not31 = icmp eq i64 %34, 0
  br i1 %.not31, label %35, label %lean_dec.exit18

35:                                               ; preds = %lean_inc.exit19
  %36 = load i32, ptr %12, align 4, !tbaa !10
  %37 = icmp sgt i32 %36, 1
  br i1 %37, label %38, label %40, !prof !13

38:                                               ; preds = %35
  %39 = add nsw i32 %36, -1
  store i32 %39, ptr %12, align 4, !tbaa !10
  br label %lean_dec.exit18

40:                                               ; preds = %35
  %.not.i = icmp eq i32 %36, 0
  br i1 %.not.i, label %lean_dec.exit18, label %41

41:                                               ; preds = %40
  tail call void @lean_dec_ref_cold(ptr noundef nonnull %12) #4
  br label %lean_dec.exit18

lean_dec.exit18:                                  ; preds = %41, %40, %38, %lean_inc.exit19
  %42 = getelementptr inbounds nuw i8, ptr %14, i64 8
  %43 = load ptr, ptr %42, align 8, !tbaa !4
  %44 = ptrtoint ptr %43 to i64
  %45 = and i64 %44, 1
  %.not32 = icmp eq i64 %45, 0
  br i1 %.not32, label %46, label %lean_inc.exit

46:                                               ; preds = %lean_dec.exit18
  %.val.i27 = load i32, ptr %43, align 4, !tbaa !10
  %47 = icmp sgt i32 %.val.i27, 0
  br i1 %47, label %48, label %50, !prof !13

48:                                               ; preds = %46
  %49 = add nuw i32 %.val.i27, 1
  store i32 %49, ptr %43, align 4, !tbaa !10
  br label %lean_inc.exit

50:                                               ; preds = %46
  %.not.i28 = icmp eq i32 %.val.i27, 0
  br i1 %.not.i28, label %lean_inc.exit, label %51

51:                                               ; preds = %50
  tail call void @lean_inc_ref_cold(ptr noundef nonnull %43) #4
  br label %lean_inc.exit

lean_inc.exit:                                    ; preds = %51, %50, %48, %lean_dec.exit18
  br i1 %.not, label %52, label %lean_dec.exit

52:                                               ; preds = %lean_inc.exit
  %53 = load i32, ptr %14, align 4, !tbaa !10
  %54 = icmp sgt i32 %53, 1
  br i1 %54, label %55, label %57, !prof !13

55:                                               ; preds = %52
  %56 = add nsw i32 %53, -1
  store i32 %56, ptr %14, align 4, !tbaa !10
  br label %lean_dec.exit

57:                                               ; preds = %52
  %.not.i21 = icmp eq i32 %53, 0
  br i1 %.not.i21, label %lean_dec.exit, label %58

58:                                               ; preds = %57
  tail call void @lean_dec_ref_cold(ptr noundef nonnull %14) #4
  br label %lean_dec.exit

lean_dec.exit:                                    ; preds = %58, %57, %55, %lean_inc.exit
  %59 = tail call ptr @l_Lean_Meta_Grind_cases(ptr noundef %43, ptr noundef %0, ptr noundef %6, ptr noundef %7, ptr noundef %8, ptr noundef %9, ptr noundef %24) #4
  ret ptr %59
}